target datalayout = "e-m:e-p270:32:32-p271:32:32-p272:64:64-i64:64-i128:128-f80:128-n8:16:32:64-S128"
target triple = "x86_64-pc-linux-gnu"

%"class.cv::ParallelLoopBody" = type { ptr }
%"struct.cv::ximgproc::FastGlobalSmootherFilterImpl::HorizontalPass_ParBody" = type <{ %"class.cv::ParallelLoopBody", ptr, ptr, i32, i32, i32, [4 x i8] }>

@_ZTVN2cv16ParallelLoopBodyE = available_externally unnamed_addr constant { [5 x ptr] } { [5 x ptr] [ptr null, ptr @_ZTIN2cv16ParallelLoopBodyE, ptr @_ZN2cv16ParallelLoopBodyD1Ev, ptr @_ZN2cv16ParallelLoopBodyD0Ev, ptr @__cxa_pure_virtual] }, align 8

; Function Attrs: inlinehint mustprogress nounwind uwtable
define linkonce_odr hidden void @_ZN2cv16ParallelLoopBodyC2Ev(ptr noundef nonnull align 8 dereferenceable(8) %0) unnamed_addr #8 comdat align 2 {
  %2 = alloca ptr, align 8
  store ptr %0, ptr %2, align 8, !tbaa !111
  %3 = load ptr, ptr %2, align 8
  store ptr getelementptr inbounds inrange(-16, 24) ({ [5 x ptr] }, ptr @_ZTVN2cv16ParallelLoopBodyE, i32 0, i32 0, i32 2), ptr %3, align 8, !tbaa !56
  ret void
}

; Function Attrs: mustprogress nounwind uwtable
define hidden void @_ZN2cv8ximgproc28FastGlobalSmootherFilterImpl22HorizontalPass_ParBodyC2ERS1_RNS_3MatEii(ptr noundef nonnull align 8 dereferenceable(36) %0, ptr noundef nonnull align 8 dereferenceable(424) %1, ptr noundef nonnull align 8 dereferenceable(96) %2, i32 noundef %3, i32 noundef %4) unnamed_addr #7 align 2 {
  %6 = alloca ptr, align 8
  %7 = alloca ptr, align 8
  %8 = alloca ptr, align 8
  %9 = alloca i32, align 4
  %10 = alloca i32, align 4
  store ptr %0, ptr %6, align 8, !tbaa !103
  store ptr %1, ptr %7, align 8, !tbaa !3
  store ptr %2, ptr %8, align 8, !tbaa !40
  store i32 %3, ptr %9, align 4, !tbaa !12
  store i32 %4, ptr %10, align 4, !tbaa !12
  %11 = load ptr, ptr %6, align 8
  call void @_ZN2cv16ParallelLoopBodyC2Ev(ptr noundef nonnull align 8 dereferenceable(8) %11) #3
  store ptr getelementptr inbounds inrange(-16, 24) ({ [5 x ptr] }, ptr @_ZTVN2cv8ximgproc28FastGlobalSmootherFilterImpl22HorizontalPass_ParBodyE, i32 0, i32 0, i32 2), ptr %11, align 8, !tbaa !56
  %12 = getelementptr inbounds nuw %"struct.cv::ximgproc::FastGlobalSmootherFilterImpl::HorizontalPass_ParBody", ptr %11, i32 0, i32 1
  %13 = load ptr, ptr %7, align 8, !tbaa !3
  store ptr %13, ptr %12, align 8, !tbaa !105
  %14 = getelementptr inbounds nuw %"struct.cv::ximgproc::FastGlobalSmootherFilterImpl::HorizontalPass_ParBody", ptr %11, i32 0, i32 2
  %15 = load ptr, ptr %8, align 8, !tbaa !40
  store ptr %15, ptr %14, align 8, !tbaa !107
  %16 = getelementptr inbounds nuw %"struct.cv::ximgproc::FastGlobalSmootherFilterImpl::HorizontalPass_ParBody", ptr %11, i32 0, i32 3
  %17 = load i32, ptr %9, align 4, !tbaa !12
  store i32 %17, ptr %16, align 8, !tbaa !108
  %18 = getelementptr inbounds nuw %"struct.cv::ximgproc::FastGlobalSmootherFilterImpl::HorizontalPass_ParBody", ptr %11, i32 0, i32 5
  %19 = load i32, ptr %10, align 4, !tbaa !12
  store i32 %19, ptr %18, align 8, !tbaa !109
  %20 = getelementptr inbounds nuw %"struct.cv::ximgproc::FastGlobalSmootherFilterImpl::HorizontalPass_ParBody", ptr %11, i32 0, i32 5
  %21 = load i32, ptr %20, align 8, !tbaa !109
  %22 = sitofp i32 %21 to double
  %23 = getelementptr inbounds nuw %"struct.cv::ximgproc::FastGlobalSmootherFilterImpl::HorizontalPass_ParBody", ptr %11, i32 0, i32 3
  %24 = load i32, ptr %23, align 8, !tbaa !108
  %25 = sitofp i32 %24 to double
  %26 = fdiv double %22, %25
  %27 = call double @llvm.ceil.f64(double %26)
  %28 = fptosi double %27 to i32
  %29 = getelementptr inbounds nuw %"struct.cv::ximgproc::FastGlobalSmootherFilterImpl::HorizontalPass_ParBody", ptr %11, i32 0, i32 4
  store i32 %28, ptr %29, align 4, !tbaa !110
  ret void
}